; Function Attrs: nounwind uwtable
define internal ptr @builtin_issubclass(ptr readnone captures(none) %0, ptr noundef readonly captures(none) %1, i64 noundef %2) #0 {
  %or.cond = icmp eq i64 %2, 2
  br i1 %or.cond, label %6, label %4

4:                                                ; preds = %3
  %5 = tail call i32 @_PyArg_CheckPositional(ptr noundef nonnull @.str.76, i64 noundef %2, i64 noundef 2, i64 noundef 2) #9
  %.not = icmp eq i32 %5, 0
  br i1 %.not, label %builtin_issubclass_impl.exit, label %6

6:                                                ; preds = %3, %4
  %7 = load ptr, ptr %1, align 8, !tbaa !39
  %8 = getelementptr i8, ptr %1, i64 8
  %9 = load ptr, ptr %8, align 8, !tbaa !39
  %10 = tail call i32 @PyObject_IsSubclass(ptr noundef %7, ptr noundef %9) #9
  %11 = icmp slt i32 %10, 0
  br i1 %11, label %builtin_issubclass_impl.exit, label %12

12:                                               ; preds = %6
  %13 = zext nneg i32 %10 to i64
  %14 = tail call ptr @PyBool_FromLong(i64 noundef %13) #9
  br label %builtin_issubclass_impl.exit

builtin_issubclass_impl.exit:                     ; preds = %12, %6, %4
  %.0 = phi ptr [ null, %4 ], [ %14, %12 ], [ null, %6 ]
  ret ptr %.0
}